(dp1
S'lat'
p2
(dp3
S'length'
p4
I32768
sS'unique'
p5
I00
sS'sortable'
p6
I3
sS'sql'
p7
S'TEXT'
p8
sS'notnull'
p9
I00
sS'type'
p10
S'text'
p11
ssS'lng'
p12
(dp13
g4
I32768
sg5
I00
sg6
I4
sg7
S'TEXT'
p14
sg9
I00
sg10
g11
ssS'id_user'
p15
(dp16
g4
I512
sg5
I00
sg6
I2
sg7
S'INTEGER REFERENCES usuario (id) ON DELETE CASCADE  '
p17
sg9
I00
sg10
S'reference usuario'
p18
ssS'id'
p19
(dp20
g4
I512
sg5
I00
sg6
I1
sg7
S'INTEGER PRIMARY KEY AUTOINCREMENT'
p21
sg9
I00
sg10
S'id'
p22
ss.